target datalayout = "e-m:e-p270:32:32-p271:32:32-p272:64:64-i64:64-i128:128-f80:128-n8:16:32:64-S128"
target triple = "x86_64-unknown-linux-gnu"

%"class.proxygen::Sampling" = type <{ ptr, double, i32, [4 x i8] }>
%"class.folly::Range" = type { ptr, ptr }

; Function Attrs: mustprogress nounwind uwtable
define linkonce_odr noundef i32 @_ZNSt14numeric_limitsIjE3maxEv() #1 comdat align 2 {
entry:
  ret i32 -1
}

; Function Attrs: mustprogress nounwind uwtable
define noundef i32 @_ZN8proxygen8Sampling9rateToKeyEd(double noundef %rate) #1 align 2 {
entry:
  %rate.addr = alloca double, align 8
  store double %rate, ptr %rate.addr, align 8
  %call = call noundef i32 @_ZNSt14numeric_limitsIjE3maxEv() #8
  %conv = uitofp i32 %call to double
  %0 = load double, ptr %rate.addr, align 8
  %mul = fmul double %conv, %0
  %conv1 = fptoui double %mul to i32
  ret i32 %conv1
}

; Function Attrs: noreturn nounwind uwtable
define linkonce_odr hidden void @__clang_call_terminate(ptr noundef %0) #5 comdat {
  %2 = call ptr @__cxa_begin_catch(ptr %0) #8
  call void @_ZSt9terminatev() #7
  unreachable
}

; Function Attrs: mustprogress nounwind uwtable
define linkonce_odr noundef i32 @_ZN5folly4hash17fnv32_append_byteEjh(i32 noundef %hash, i8 noundef zeroext %c) #1 comdat {
entry:
  %hash.addr = alloca i32, align 4
  %c.addr = alloca i8, align 1
  store i32 %hash, ptr %hash.addr, align 4
  store i8 %c, ptr %c.addr, align 1
  %0 = load i32, ptr %hash.addr, align 4
  %1 = load i32, ptr %hash.addr, align 4
  %shl = shl i32 %1, 1
  %add = add i32 %0, %shl
  %2 = load i32, ptr %hash.addr, align 4
  %shl1 = shl i32 %2, 4
  %add2 = add i32 %add, %shl1
  %3 = load i32, ptr %hash.addr, align 4
  %shl3 = shl i32 %3, 7
  %add4 = add i32 %add2, %shl3
  %4 = load i32, ptr %hash.addr, align 4
  %shl5 = shl i32 %4, 8
  %add6 = add i32 %add4, %shl5
  %5 = load i32, ptr %hash.addr, align 4
  %shl7 = shl i32 %5, 24
  %add8 = add i32 %add6, %shl7
  store i32 %add8, ptr %hash.addr, align 4
  %6 = load i8, ptr %c.addr, align 1
  %conv = sext i8 %6 to i32
  %7 = load i32, ptr %hash.addr, align 4
  %xor = xor i32 %7, %conv
  store i32 %xor, ptr %hash.addr, align 4
  %8 = load i32, ptr %hash.addr, align 4
  ret i32 %8
}

; Function Attrs: mustprogress nounwind uwtable
define noundef i32 @_ZNK8proxygen8Sampling10getIntRateEv(ptr noundef nonnull align 8 dereferenceable(20) %this) #1 align 2 {
entry:
  %this.addr = alloca ptr, align 8
  store ptr %this, ptr %this.addr, align 8
  %this1 = load ptr, ptr %this.addr, align 8
  %rate_ = getelementptr inbounds %"class.proxygen::Sampling", ptr %this1, i32 0, i32 1
  %0 = load double, ptr %rate_, align 8
  %call = call noundef i32 @_ZN8proxygen8Sampling9rateToKeyEd(double noundef %0)
  ret i32 %call
}

; Function Attrs: mustprogress nounwind uwtable
define linkonce_odr noundef i32 @_ZN5folly4hash9fnv32_bufIcTnNSt9enable_ifIXsr6detailE18is_hashable_byte_vIT_EEiE4typeELi0EEEjPKS3_mj(ptr noundef %buf, i64 noundef %n, i32 noundef %hash) #1 comdat personality ptr @__gxx_personality_v0 {
entry:
  %buf.addr = alloca ptr, align 8
  %n.addr = alloca i64, align 8
  %hash.addr = alloca i32, align 4
  %i = alloca i64, align 8
  store ptr %buf, ptr %buf.addr, align 8
  store i64 %n, ptr %n.addr, align 8
  store i32 %hash, ptr %hash.addr, align 4
  store i64 0, ptr %i, align 8
  br label %for.cond

for.cond:                                         ; preds = %for.inc, %entry
  %0 = load i64, ptr %i, align 8
  %1 = load i64, ptr %n.addr, align 8
  %cmp = icmp ult i64 %0, %1
  br i1 %cmp, label %for.body, label %for.end

for.body:                                         ; preds = %for.cond
  %2 = load i32, ptr %hash.addr, align 4
  %3 = load ptr, ptr %buf.addr, align 8
  %4 = load i64, ptr %i, align 8
  %arrayidx = getelementptr inbounds i8, ptr %3, i64 %4
  %5 = load i8, ptr %arrayidx, align 1
  %call = invoke noundef i32 @_ZN5folly4hash17fnv32_append_byteEjh(i32 noundef %2, i8 noundef zeroext %5)
          to label %invoke.cont unwind label %terminate.lpad

invoke.cont:                                      ; preds = %for.body
  store i32 %call, ptr %hash.addr, align 4
  br label %for.inc

for.inc:                                          ; preds = %invoke.cont
  %6 = load i64, ptr %i, align 8
  %inc = add i64 %6, 1
  store i64 %inc, ptr %i, align 8
  br label %for.cond, !llvm.loop !4

for.end:                                          ; preds = %for.cond
  %7 = load i32, ptr %hash.addr, align 4
  ret i32 %7

terminate.lpad:                                   ; preds = %for.body
  %8 = landingpad { ptr, i32 }
          catch ptr null
  %9 = extractvalue { ptr, i32 } %8, 0
  call void @__clang_call_terminate(ptr %9) #7
  unreachable
}

; Function Attrs: mustprogress nounwind uwtable
define linkonce_odr noundef i64 @_ZNK5folly5RangeIPKcE4sizeEv(ptr noundef nonnull align 8 dereferenceable(16) %this) #1 comdat align 2 {
entry:
  %this.addr = alloca ptr, align 8
  store ptr %this, ptr %this.addr, align 8
  %this1 = load ptr, ptr %this.addr, align 8
  %e_ = getelementptr inbounds %"class.folly::Range", ptr %this1, i32 0, i32 1
  %0 = load ptr, ptr %e_, align 8
  %b_ = getelementptr inbounds %"class.folly::Range", ptr %this1, i32 0, i32 0
  %1 = load ptr, ptr %b_, align 8
  %sub.ptr.lhs.cast = ptrtoint ptr %0 to i64
  %sub.ptr.rhs.cast = ptrtoint ptr %1 to i64
  %sub.ptr.sub = sub i64 %sub.ptr.lhs.cast, %sub.ptr.rhs.cast
  ret i64 %sub.ptr.sub
}

; Function Attrs: mustprogress nounwind uwtable
define linkonce_odr noundef ptr @_ZNK5folly5RangeIPKcE4dataEv(ptr noundef nonnull align 8 dereferenceable(16) %this) #1 comdat align 2 {
entry:
  %this.addr = alloca ptr, align 8
  store ptr %this, ptr %this.addr, align 8
  %this1 = load ptr, ptr %this.addr, align 8
  %b_ = getelementptr inbounds %"class.folly::Range", ptr %this1, i32 0, i32 0
  %0 = load ptr, ptr %b_, align 8
  ret ptr %0
}

; Function Attrs: mustprogress uwtable
define noundef zeroext i1 @_ZNK8proxygen8Sampling7isLuckyEN5folly5RangeIPKcEE(ptr noundef nonnull align 8 dereferenceable(20) %this, ptr %key.coerce0, ptr %key.coerce1) #0 align 2 {
entry:
  %retval = alloca i1, align 1
  %key = alloca %"class.folly::Range", align 8
  %this.addr = alloca ptr, align 8
  %0 = getelementptr inbounds { ptr, ptr }, ptr %key, i32 0, i32 0
  store ptr %key.coerce0, ptr %0, align 8
  %1 = getelementptr inbounds { ptr, ptr }, ptr %key, i32 0, i32 1
  store ptr %key.coerce1, ptr %1, align 8
  store ptr %this, ptr %this.addr, align 8
  %this1 = load ptr, ptr %this.addr, align 8
  %weight_ = getelementptr inbounds %"class.proxygen::Sampling", ptr %this1, i32 0, i32 2
  %2 = load i32, ptr %weight_, align 8
  %cmp = icmp eq i32 %2, 1
  br i1 %cmp, label %if.then, label %if.else

if.then:                                          ; preds = %entry
  store i1 true, ptr %retval, align 1
  br label %return

if.else:                                          ; preds = %entry
  %weight_2 = getelementptr inbounds %"class.proxygen::Sampling", ptr %this1, i32 0, i32 2
  %3 = load i32, ptr %weight_2, align 8
  %cmp3 = icmp eq i32 %3, 0
  br i1 %cmp3, label %if.then4, label %if.end

if.then4:                                         ; preds = %if.else
  store i1 false, ptr %retval, align 1
  br label %return

if.end:                                           ; preds = %if.else
  br label %if.end5

if.end5:                                          ; preds = %if.end
  %call = call noundef ptr @_ZNK5folly5RangeIPKcE4dataEv(ptr noundef nonnull align 8 dereferenceable(16) %key)
  %call6 = call noundef i64 @_ZNK5folly5RangeIPKcE4sizeEv(ptr noundef nonnull align 8 dereferenceable(16) %key)
  %call7 = call noundef i32 @_ZN5folly4hash9fnv32_bufIcTnNSt9enable_ifIXsr6detailE18is_hashable_byte_vIT_EEiE4typeELi0EEEjPKS3_mj(ptr noundef %call, i64 noundef %call6, i32 noundef -2128831035) #8
  %call8 = call noundef i32 @_ZNK8proxygen8Sampling10getIntRateEv(ptr noundef nonnull align 8 dereferenceable(20) %this1)
  %cmp9 = icmp ult i32 %call7, %call8
  store i1 %cmp9, ptr %retval, align 1
  br label %return

return:                                           ; preds = %if.end5, %if.then4, %if.then
  %4 = load i1, ptr %retval, align 1
  ret i1 %4
}

; Function Attrs: mustprogress nounwind uwtable
define linkonce_odr void @_ZN5folly5RangeIPKcEC2ISaIcES2_TnNS_6detail13IsCharPointerIT0_E10const_typeELi0EEERKNSt7__cxx1112basic_stringIcSt11char_traitsIcET_EE(ptr noundef nonnull align 8 dereferenceable(16) %this, ptr noundef nonnull align 8 dereferenceable(32) %str) unnamed_addr #1 comdat align 2 {
entry:
  %this.addr = alloca ptr, align 8
  %str.addr = alloca ptr, align 8
  store ptr %this, ptr %this.addr, align 8
  store ptr %str, ptr %str.addr, align 8
  %this1 = load ptr, ptr %this.addr, align 8
  %b_ = getelementptr inbounds %"class.folly::Range", ptr %this1, i32 0, i32 0
  %0 = load ptr, ptr %str.addr, align 8
  %call = call noundef ptr @_ZNKSt7__cxx1112basic_stringIcSt11char_traitsIcESaIcEE4dataEv(ptr noundef nonnull align 8 dereferenceable(32) %0) #8
  store ptr %call, ptr %b_, align 8
  %e_ = getelementptr inbounds %"class.folly::Range", ptr %this1, i32 0, i32 1
  %b_2 = getelementptr inbounds %"class.folly::Range", ptr %this1, i32 0, i32 0
  %1 = load ptr, ptr %b_2, align 8
  %2 = load ptr, ptr %str.addr, align 8
  %call3 = call noundef i64 @_ZNKSt7__cxx1112basic_stringIcSt11char_traitsIcESaIcEE4sizeEv(ptr noundef nonnull align 8 dereferenceable(32) %2) #8
  %add.ptr = getelementptr inbounds i8, ptr %1, i64 %call3
  store ptr %add.ptr, ptr %e_, align 8
  ret void
}

; Function Attrs: mustprogress uwtable
define noundef zeroext i1 @_ZNK8proxygen8Sampling7isLuckyERKNSt7__cxx1112basic_stringIcSt11char_traitsIcESaIcEEE(ptr noundef nonnull align 8 dereferenceable(20) %this, ptr noundef nonnull align 8 dereferenceable(32) %key) #0 align 2 {
entry:
  %this.addr = alloca ptr, align 8
  %key.addr = alloca ptr, align 8
  %agg.tmp = alloca %"class.folly::Range", align 8
  store ptr %this, ptr %this.addr, align 8
  store ptr %key, ptr %key.addr, align 8
  %this1 = load ptr, ptr %this.addr, align 8
  %0 = load ptr, ptr %key.addr, align 8
  call void @_ZN5folly5RangeIPKcEC2ISaIcES2_TnNS_6detail13IsCharPointerIT0_E10const_typeELi0EEERKNSt7__cxx1112basic_stringIcSt11char_traitsIcET_EE(ptr noundef nonnull align 8 dereferenceable(16) %agg.tmp, ptr noundef nonnull align 8 dereferenceable(32) %0)
  %1 = getelementptr inbounds { ptr, ptr }, ptr %agg.tmp, i32 0, i32 0
  %2 = load ptr, ptr %1, align 8
  %3 = getelementptr inbounds { ptr, ptr }, ptr %agg.tmp, i32 0, i32 1
  %4 = load ptr, ptr %3, align 8
  %call = call noundef zeroext i1 @_ZNK8proxygen8Sampling7isLuckyEN5folly5RangeIPKcEE(ptr noundef nonnull align 8 dereferenceable(20) %this1, ptr %2, ptr %4)
  ret i1 %call
}