; Function Attrs: mustprogress nounwind uwtable
define noundef zeroext i1 @_ZNK8proxygen8Sampling7isLuckyERKNSt7__cxx1112basic_stringIcSt11char_traitsIcESaIcEEE(ptr nocapture noundef nonnull readonly align 8 dereferenceable(20) %this, ptr noundef nonnull align 8 dereferenceable(32) %key) local_unnamed_addr #2 align 2 personality ptr @__gxx_personality_v0 {
entry:
  %call.i = tail call noundef ptr @_ZNKSt7__cxx1112basic_stringIcSt11char_traitsIcESaIcEE4dataEv(ptr noundef nonnull align 8 dereferenceable(32) %key) #10
  %call3.i = tail call noundef i64 @_ZNKSt7__cxx1112basic_stringIcSt11char_traitsIcESaIcEE4sizeEv(ptr noundef nonnull align 8 dereferenceable(32) %key) #10
  %weight_.i = getelementptr inbounds i8, ptr %this, i64 16
  %0 = load i32, ptr %weight_.i, align 8
  switch i32 %0, label %if.end5.i [
    i32 1, label %_ZNK8proxygen8Sampling7isLuckyEN5folly5RangeIPKcEE.exit
    i32 0, label %if.then4.i
  ]

if.then4.i:                                       ; preds = %entry
  br label %_ZNK8proxygen8Sampling7isLuckyEN5folly5RangeIPKcEE.exit

if.end5.i:                                        ; preds = %entry
  %cmp4.not.i.i = icmp eq i64 %call3.i, 0
  br i1 %cmp4.not.i.i, label %_ZN5folly4hash9fnv32_bufIcTnNSt9enable_ifIXsr6detailE18is_hashable_byte_vIT_EEiE4typeELi0EEEjPKS3_mj.exit.i, label %for.body.i.i

for.body.i.i:                                     ; preds = %if.end5.i, %for.body.i.i
  %i.06.i.i = phi i64 [ %inc.i.i, %for.body.i.i ], [ 0, %if.end5.i ]
  %hash.addr.05.i.i = phi i32 [ %xor.i.i.i, %for.body.i.i ], [ -2128831035, %if.end5.i ]
  %arrayidx.i.i = getelementptr inbounds i8, ptr %call.i, i64 %i.06.i.i
  %1 = load i8, ptr %arrayidx.i.i, align 1
  %add8.i.i.i = mul i32 %hash.addr.05.i.i, 16777619
  %conv.i.i.i = sext i8 %1 to i32
  %xor.i.i.i = xor i32 %add8.i.i.i, %conv.i.i.i
  %inc.i.i = add nuw i64 %i.06.i.i, 1
  %exitcond.not.i.i = icmp eq i64 %inc.i.i, %call3.i
  br i1 %exitcond.not.i.i, label %_ZN5folly4hash9fnv32_bufIcTnNSt9enable_ifIXsr6detailE18is_hashable_byte_vIT_EEiE4typeELi0EEEjPKS3_mj.exit.i, label %for.body.i.i, !llvm.loop !4

_ZN5folly4hash9fnv32_bufIcTnNSt9enable_ifIXsr6detailE18is_hashable_byte_vIT_EEiE4typeELi0EEEjPKS3_mj.exit.i: ; preds = %for.body.i.i, %if.end5.i
  %hash.addr.0.lcssa.i.i = phi i32 [ -2128831035, %if.end5.i ], [ %xor.i.i.i, %for.body.i.i ]
  %rate_.i.i = getelementptr inbounds i8, ptr %this, i64 8
  %2 = load double, ptr %rate_.i.i, align 8
  %mul.i.i.i = fmul double %2, 0x41EFFFFFFFE00000
  %conv1.i.i.i = fptoui double %mul.i.i.i to i32
  %cmp9.i = icmp ult i32 %hash.addr.0.lcssa.i.i, %conv1.i.i.i
  br label %_ZNK8proxygen8Sampling7isLuckyEN5folly5RangeIPKcEE.exit

_ZNK8proxygen8Sampling7isLuckyEN5folly5RangeIPKcEE.exit: ; preds = %entry, %if.then4.i, %_ZN5folly4hash9fnv32_bufIcTnNSt9enable_ifIXsr6detailE18is_hashable_byte_vIT_EEiE4typeELi0EEEjPKS3_mj.exit.i
  %retval.0.i = phi i1 [ false, %if.then4.i ], [ %cmp9.i, %_ZN5folly4hash9fnv32_bufIcTnNSt9enable_ifIXsr6detailE18is_hashable_byte_vIT_EEiE4typeELi0EEEjPKS3_mj.exit.i ], [ true, %entry ]
  ret i1 %retval.0.i
}